; Function Attrs: nofree norecurse nosync nounwind memory(argmem: readwrite) uwtable
define internal void @rv40_h_weak_loop_filter(ptr noundef captures(none) %0, i64 noundef %1, i32 noundef %2, i32 noundef %3, i32 noundef %4, i32 noundef %5, i32 noundef %6, i32 noundef %7, i32 noundef %8) #3 {
  %10 = trunc i64 %1 to i32
  %sext = mul i64 %1, -8589934592
  %11 = ashr exact i64 %sext, 32
  %.neg = mul i64 %1, -4294967296
  %12 = ashr exact i64 %.neg, 32
  %sext14 = shl i64 %1, 32
  %13 = ashr exact i64 %sext14, 32
  %sext15 = mul i64 %1, -12884901888
  %14 = ashr exact i64 %sext15, 32
  %15 = shl nsw i32 %10, 1
  %16 = sext i32 %15 to i64
  %17 = icmp ne i32 %2, 0
  %18 = icmp ne i32 %3, 0
  %19 = and i1 %17, %18
  %20 = select i1 %19, i32 2, i32 3
  %21 = sub nsw i32 0, %6
  %22 = sub nsw i32 0, %8
  %23 = sub nsw i32 0, %7
  br label %24

24:                                               ; preds = %9, %93
  %.0.i19 = phi ptr [ %0, %9 ], [ %95, %93 ]
  %.087.i18 = phi i32 [ 0, %9 ], [ %94, %93 ]
  %25 = getelementptr inbounds i8, ptr %.0.i19, i64 %11
  %26 = load i8, ptr %25, align 1, !tbaa !8
  %27 = zext i8 %26 to i32
  %28 = getelementptr inbounds i8, ptr %.0.i19, i64 %12
  %29 = load i8, ptr %28, align 1, !tbaa !8
  %30 = zext i8 %29 to i32
  %31 = getelementptr inbounds i8, ptr %.0.i19, i64 %13
  %32 = load i8, ptr %31, align 1, !tbaa !8
  %33 = zext i8 %32 to i32
  %34 = load i8, ptr %.0.i19, align 1, !tbaa !8
  %35 = zext i8 %34 to i32
  %36 = sub nsw i32 %33, %35
  %37 = getelementptr inbounds i8, ptr %.0.i19, i64 %14
  %38 = load i8, ptr %37, align 1, !tbaa !8
  %39 = zext i8 %38 to i32
  %40 = sub nsw i32 %27, %39
  %41 = getelementptr inbounds i8, ptr %.0.i19, i64 %16
  %42 = load i8, ptr %41, align 1, !tbaa !8
  %43 = zext i8 %42 to i32
  %44 = sub nsw i32 %33, %43
  %45 = sub nsw i32 %35, %30
  %.not.i = icmp eq i8 %34, %29
  br i1 %.not.i, label %93, label %46

46:                                               ; preds = %24
  %47 = tail call i32 @llvm.abs.i32(i32 %45, i1 true)
  %48 = mul nsw i32 %47, %4
  %49 = ashr i32 %48, 7
  %50 = icmp sgt i32 %49, %20
  br i1 %50, label %93, label %51

51:                                               ; preds = %46
  %52 = shl nsw i32 %45, 2
  %53 = sub nsw i32 %27, %33
  %54 = add nsw i32 %53, 4
  %.088.i = select i1 %19, i32 %54, i32 4
  %55 = add nsw i32 %.088.i, %52
  %56 = ashr i32 %55, 3
  %57 = icmp slt i32 %56, %21
  %..i11 = tail call i32 @llvm.smin.i32(i32 %56, i32 %6)
  %.0.i12 = select i1 %57, i32 %21, i32 %..i11
  %58 = add nsw i32 %.0.i12, %30
  %59 = sext i32 %58 to i64
  %60 = getelementptr inbounds i8, ptr getelementptr inbounds nuw (i8, ptr @ff_crop_tab, i64 1024), i64 %59
  %61 = load i8, ptr %60, align 1, !tbaa !8
  store i8 %61, ptr %28, align 1, !tbaa !8
  %62 = load i8, ptr %.0.i19, align 1, !tbaa !8
  %63 = zext i8 %62 to i32
  %64 = sub nsw i32 %63, %.0.i12
  %65 = sext i32 %64 to i64
  %66 = getelementptr inbounds i8, ptr getelementptr inbounds nuw (i8, ptr @ff_crop_tab, i64 1024), i64 %65
  %67 = load i8, ptr %66, align 1, !tbaa !8
  store i8 %67, ptr %.0.i19, align 1, !tbaa !8
  %68 = tail call i32 @llvm.abs.i32(i32 %40, i1 true)
  %.not90.i = icmp sle i32 %68, %5
  %or.cond.i.not = select i1 %17, i1 %.not90.i, i1 false
  br i1 %or.cond.i.not, label %69, label %80

69:                                               ; preds = %51
  %70 = add nsw i32 %40, %27
  %71 = sub i32 %70, %58
  %72 = ashr i32 %71, 1
  %73 = load i8, ptr %25, align 1, !tbaa !8
  %74 = zext i8 %73 to i32
  %75 = icmp slt i32 %72, %22
  %..i9 = tail call i32 @llvm.smin.i32(i32 %72, i32 %8)
  %.0.i10 = select i1 %75, i32 %22, i32 %..i9
  %76 = sub nsw i32 %74, %.0.i10
  %77 = sext i32 %76 to i64
  %78 = getelementptr inbounds i8, ptr getelementptr inbounds nuw (i8, ptr @ff_crop_tab, i64 1024), i64 %77
  %79 = load i8, ptr %78, align 1, !tbaa !8
  store i8 %79, ptr %25, align 1, !tbaa !8
  br label %80

80:                                               ; preds = %69, %51
  %81 = tail call i32 @llvm.abs.i32(i32 %44, i1 true)
  %.not91.i = icmp sle i32 %81, %5
  %or.cond94.i.not = select i1 %18, i1 %.not91.i, i1 false
  br i1 %or.cond94.i.not, label %82, label %93

82:                                               ; preds = %80
  %83 = add nsw i32 %36, %44
  %84 = add nsw i32 %83, %.0.i12
  %85 = ashr i32 %84, 1
  %86 = load i8, ptr %31, align 1, !tbaa !8
  %87 = zext i8 %86 to i32
  %88 = icmp slt i32 %85, %23
  %..i = tail call i32 @llvm.smin.i32(i32 %85, i32 %7)
  %.0.i8 = select i1 %88, i32 %23, i32 %..i
  %89 = sub nsw i32 %87, %.0.i8
  %90 = sext i32 %89 to i64
  %91 = getelementptr inbounds i8, ptr getelementptr inbounds nuw (i8, ptr @ff_crop_tab, i64 1024), i64 %90
  %92 = load i8, ptr %91, align 1, !tbaa !8
  store i8 %92, ptr %31, align 1, !tbaa !8
  br label %93

93:                                               ; preds = %82, %80, %46, %24
  %94 = add nuw nsw i32 %.087.i18, 1
  %95 = getelementptr inbounds nuw i8, ptr %.0.i19, i64 1
  %exitcond.not = icmp eq i32 %94, 4
  br i1 %exitcond.not, label %rv40_weak_loop_filter.exit, label %24, !llvm.loop !32

rv40_weak_loop_filter.exit:                       ; preds = %93
  ret void
}